; Function Attrs: mustprogress nofree norecurse nosync nounwind willreturn memory(argmem: read) uwtable
define range(i32 -1, 2) i32 @Ree_ManCompare(ptr noundef readonly captures(none) %0, ptr noundef readonly captures(none) %1) #7 {
  %3 = getelementptr inbounds nuw i8, ptr %0, i64 12
  %4 = load i32, ptr %3, align 4, !tbaa !17
  %5 = getelementptr inbounds nuw i8, ptr %1, i64 12
  %6 = load i32, ptr %5, align 4, !tbaa !17
  %7 = icmp slt i32 %4, %6
  br i1 %7, label %18, label %8

8:                                                ; preds = %2
  %9 = icmp sgt i32 %4, %6
  br i1 %9, label %18, label %10

10:                                               ; preds = %8
  %11 = getelementptr inbounds nuw i8, ptr %0, i64 16
  %12 = load i32, ptr %11, align 4, !tbaa !17
  %13 = getelementptr inbounds nuw i8, ptr %1, i64 16
  %14 = load i32, ptr %13, align 4, !tbaa !17
  %15 = icmp slt i32 %12, %14
  br i1 %15, label %18, label %16

16:                                               ; preds = %10
  %17 = icmp sgt i32 %12, %14
  %. = zext i1 %17 to i32
  br label %18

18:                                               ; preds = %16, %10, %8, %2
  %.0 = phi i32 [ -1, %2 ], [ 1, %8 ], [ -1, %10 ], [ %., %16 ]
  ret i32 %.0
}